target datalayout = "e-m:e-p270:32:32-p271:32:32-p272:64:64-i64:64-i128:128-f80:128-n8:16:32:64-S128"
target triple = "x86_64-pc-linux-gnu"

%struct._zend_executor_globals = type { %struct._zval_struct, %struct._zval_struct, [32 x ptr], ptr, ptr, %struct._zend_array, %struct._zend_array, ptr, i32, i32, ptr, ptr, ptr, ptr, ptr, ptr, i64, ptr, ptr, i32, i32, i64, i32, i32, i32, i8, i8, %struct.zend_atomic_bool_s, %struct.zend_atomic_bool_s, ptr, i64, ptr, ptr, %struct._zend_array, %struct._zend_array, i32, i8, %struct._zval_struct, %struct._zval_struct, %struct._zend_stack, %struct._zend_stack, %struct._zend_stack, ptr, i32, i32, i64, ptr, ptr, ptr, %struct._zend_objects_store, ptr, ptr, ptr, [3 x %struct._zend_op], ptr, i8, i8, i64, i32, i32, ptr, [16 x %struct._HashTableIterator], ptr, %union._zend_function, %struct._zend_op, %struct._zend_array, i64, %struct.zend_get_gc_buffer, ptr, ptr, ptr, i64, i8, i32, ptr, ptr, i64, %struct._zend_call_stack, i64, i64, [6 x ptr] }
%struct.zend_atomic_bool_s = type { i8 }
%struct._zval_struct = type { %union._zend_value, %union.anon, %union.anon.2 }
%union._zend_value = type { i64 }
%union.anon = type { i32 }
%union.anon.2 = type { i32 }
%struct._zend_stack = type { i32, i32, i32, ptr }
%struct._zend_objects_store = type { ptr, i32, i32, i32 }
%struct._HashTableIterator = type { ptr, i32, i32 }
%union._zend_function = type { %struct._zend_op_array }
%struct._zend_op_array = type { i8, [3 x i8], i32, ptr, ptr, ptr, i32, i32, ptr, ptr, ptr, ptr, i32, i32, i32, i32, ptr, ptr, ptr, ptr, ptr, i32, i32, ptr, ptr, ptr, i32, i32, i32, i32, ptr, ptr, [6 x ptr] }
%struct._zend_op = type { ptr, %union._znode_op, %union._znode_op, %union._znode_op, i32, i32, i8, i8, i8, i8 }
%union._znode_op = type { i32 }
%struct._zend_array = type { %struct._zend_refcounted_h, %union.anon.4, i32, %union.anon.6, i32, i32, i32, i32, i64, ptr }
%struct._zend_refcounted_h = type { i32, %union.anon.3 }
%union.anon.3 = type { i32 }
%union.anon.4 = type { i32 }
%union.anon.6 = type { ptr }
%struct.zend_get_gc_buffer = type { ptr, ptr, ptr }
%struct._zend_call_stack = type { ptr, i64 }
%struct._zend_string = type { %struct._zend_refcounted_h, i64, i64, [1 x i8] }
%struct._xmlNode = type { ptr, i32, ptr, ptr, ptr, ptr, ptr, ptr, ptr, ptr, ptr, ptr, ptr, ptr, i16, i16 }
%struct._zend_execute_data = type { ptr, ptr, ptr, ptr, %struct._zval_struct, ptr, ptr, ptr, ptr }
%struct._dom_object = type { ptr, ptr, ptr, %struct._zend_object }
%struct._zend_object = type { %struct._zend_refcounted_h, i32, ptr, ptr, ptr, [1 x %struct._zval_struct] }
%struct._zend_class_entry = type { i8, ptr, %union.anon.8, i32, i32, i32, i32, ptr, ptr, ptr, %struct._zend_array, %struct._zend_array, %struct._zend_array, ptr, ptr, ptr, ptr, ptr, ptr, ptr, ptr, ptr, ptr, ptr, ptr, ptr, ptr, ptr, ptr, ptr, ptr, ptr, %union.anon.9, ptr, ptr, ptr, ptr, i32, i32, %union.anon.10, ptr, ptr, ptr, ptr, i32, ptr, ptr, %union.anon.11 }
%union.anon.8 = type { ptr }
%union.anon.9 = type { ptr }
%union.anon.10 = type { ptr }
%union.anon.11 = type { %struct.anon.12 }
%struct.anon.12 = type { ptr, i32, i32 }
%struct._php_libxml_node_ptr = type { ptr, i32, ptr }

@executor_globals = external global %struct._zend_executor_globals, align 8
@.str.1 = private unnamed_addr constant [18 x i8] c"Couldn't fetch %s\00", align 1
@xmlFree = external global ptr, align 8
@.str.4 = private unnamed_addr constant [4 x i8] c"lls\00", align 1

; Function Attrs: nounwind uwtable
define internal ptr @php_dom_obj_from_obj(ptr noundef %0) #0 {
  %2 = alloca ptr, align 8
  store ptr %0, ptr %2, align 8
  %3 = load ptr, ptr %2, align 8
  %4 = getelementptr inbounds i8, ptr %3, i64 -24
  ret ptr %4
}

; Function Attrs: nounwind uwtable
define hidden void @zim_DOMCharacterData_replaceData(ptr noundef %0, ptr noundef %1) #0 {
  %3 = alloca ptr, align 8
  %4 = alloca ptr, align 8
  %5 = alloca ptr, align 8
  %6 = alloca ptr, align 8
  %7 = alloca ptr, align 8
  %8 = alloca ptr, align 8
  %9 = alloca ptr, align 8
  %10 = alloca ptr, align 8
  %11 = alloca i64, align 8
  %12 = alloca i64, align 8
  %13 = alloca i32, align 4
  %14 = alloca i64, align 8
  %15 = alloca ptr, align 8
  store ptr %0, ptr %3, align 8
  store ptr %1, ptr %4, align 8
  store ptr null, ptr %8, align 8
  %16 = load ptr, ptr %3, align 8
  %17 = getelementptr inbounds %struct._zend_execute_data, ptr %16, i32 0, i32 4
  store ptr %17, ptr %5, align 8
  %18 = load ptr, ptr %3, align 8
  %19 = getelementptr inbounds %struct._zend_execute_data, ptr %18, i32 0, i32 4
  %20 = getelementptr inbounds %struct._zval_struct, ptr %19, i32 0, i32 2
  %21 = load i32, ptr %20, align 4
  %22 = call i32 (i32, ptr, ...) @zend_parse_parameters(i32 noundef %21, ptr noundef @.str.4, ptr noundef %11, ptr noundef %12, ptr noundef %10, ptr noundef %14)
  %23 = icmp eq i32 %22, -1
  br i1 %23, label %24, label %29

24:                                               ; preds = %2
  br label %25

25:                                               ; preds = %24
  %26 = load ptr, ptr getelementptr inbounds (%struct._zend_executor_globals, ptr @executor_globals, i32 0, i32 50), align 8
  %27 = icmp ne ptr %26, null
  call void @llvm.assume(i1 %27)
  br label %175

28:                                               ; No predecessors!
  br label %29

29:                                               ; preds = %28, %2
  %30 = load ptr, ptr %5, align 8
  %31 = getelementptr inbounds %struct._zval_struct, ptr %30, i32 0, i32 0
  %32 = load ptr, ptr %31, align 8
  %33 = call ptr @php_dom_obj_from_obj(ptr noundef %32)
  store ptr %33, ptr %15, align 8
  %34 = load ptr, ptr %15, align 8
  %35 = getelementptr inbounds %struct._dom_object, ptr %34, i32 0, i32 0
  %36 = load ptr, ptr %35, align 8
  %37 = icmp eq ptr %36, null
  %38 = xor i1 %37, true
  %39 = xor i1 %38, true
  %40 = zext i1 %39 to i32
  %41 = sext i32 %40 to i64
  %42 = icmp ne i64 %41, 0
  br i1 %42, label %43, label %56

43:                                               ; preds = %29
  %44 = load ptr, ptr %15, align 8
  %45 = getelementptr inbounds %struct._dom_object, ptr %44, i32 0, i32 3
  %46 = getelementptr inbounds %struct._zend_object, ptr %45, i32 0, i32 2
  %47 = load ptr, ptr %46, align 8
  %48 = getelementptr inbounds %struct._zend_class_entry, ptr %47, i32 0, i32 1
  %49 = load ptr, ptr %48, align 8
  %50 = getelementptr inbounds %struct._zend_string, ptr %49, i32 0, i32 3
  %51 = getelementptr inbounds [1 x i8], ptr %50, i64 0, i64 0
  call void (ptr, ptr, ...) @zend_throw_error(ptr noundef null, ptr noundef @.str.1, ptr noundef %51)
  br label %52

52:                                               ; preds = %43
  %53 = load ptr, ptr getelementptr inbounds (%struct._zend_executor_globals, ptr @executor_globals, i32 0, i32 50), align 8
  %54 = icmp ne ptr %53, null
  call void @llvm.assume(i1 %54)
  br label %175

55:                                               ; No predecessors!
  br label %56

56:                                               ; preds = %55, %29
  %57 = load ptr, ptr %15, align 8
  %58 = getelementptr inbounds %struct._dom_object, ptr %57, i32 0, i32 0
  %59 = load ptr, ptr %58, align 8
  %60 = getelementptr inbounds %struct._php_libxml_node_ptr, ptr %59, i32 0, i32 0
  %61 = load ptr, ptr %60, align 8
  store ptr %61, ptr %9, align 8
  %62 = load ptr, ptr %9, align 8
  %63 = getelementptr inbounds %struct._xmlNode, ptr %62, i32 0, i32 10
  %64 = load ptr, ptr %63, align 8
  store ptr %64, ptr %6, align 8
  %65 = load ptr, ptr %6, align 8
  %66 = icmp eq ptr %65, null
  br i1 %66, label %67, label %74

67:                                               ; preds = %56
  br label %68

68:                                               ; preds = %67
  br label %69

69:                                               ; preds = %68
  %70 = load ptr, ptr %4, align 8
  %71 = getelementptr inbounds %struct._zval_struct, ptr %70, i32 0, i32 1
  store i32 2, ptr %71, align 8
  br label %72

72:                                               ; preds = %69
  br label %175

73:                                               ; No predecessors!
  br label %74

74:                                               ; preds = %73, %56
  %75 = load ptr, ptr %6, align 8
  %76 = call i32 @xmlUTF8Strlen(ptr noundef %75)
  store i32 %76, ptr %13, align 4
  %77 = load i64, ptr %11, align 8
  %78 = icmp slt i64 %77, 0
  br i1 %78, label %103, label %79

79:                                               ; preds = %74
  %80 = load i64, ptr %12, align 8
  %81 = icmp slt i64 %80, 0
  br i1 %81, label %103, label %82

82:                                               ; preds = %79
  %83 = load i64, ptr %11, align 8
  %84 = icmp sgt i64 %83, 2147483647
  %85 = xor i1 %84, true
  %86 = xor i1 %85, true
  %87 = zext i1 %86 to i32
  %88 = sext i32 %87 to i64
  %89 = icmp ne i64 %88, 0
  br i1 %89, label %103, label %90

90:                                               ; preds = %82
  %91 = load i64, ptr %12, align 8
  %92 = icmp sgt i64 %91, 2147483647
  %93 = xor i1 %92, true
  %94 = xor i1 %93, true
  %95 = zext i1 %94 to i32
  %96 = sext i32 %95 to i64
  %97 = icmp ne i64 %96, 0
  br i1 %97, label %103, label %98

98:                                               ; preds = %90
  %99 = load i64, ptr %11, align 8
  %100 = load i32, ptr %13, align 4
  %101 = sext i32 %100 to i64
  %102 = icmp sgt i64 %99, %101
  br i1 %102, label %103, label %114

103:                                              ; preds = %98, %90, %82, %79, %74
  %104 = load ptr, ptr %15, align 8
  %105 = getelementptr inbounds %struct._dom_object, ptr %104, i32 0, i32 1
  %106 = load ptr, ptr %105, align 8
  %107 = call i32 @dom_get_strict_error(ptr noundef %106)
  call void @php_dom_throw_error(i32 noundef 1, i32 noundef %107)
  br label %108

108:                                              ; preds = %103
  br label %109

109:                                              ; preds = %108
  %110 = load ptr, ptr %4, align 8
  %111 = getelementptr inbounds %struct._zval_struct, ptr %110, i32 0, i32 1
  store i32 2, ptr %111, align 8
  br label %112

112:                                              ; preds = %109
  br label %175

113:                                              ; No predecessors!
  br label %114

114:                                              ; preds = %113, %98
  %115 = load i64, ptr %11, align 8
  %116 = icmp sgt i64 %115, 0
  br i1 %116, label %117, label %122

117:                                              ; preds = %114
  %118 = load ptr, ptr %6, align 8
  %119 = load i64, ptr %11, align 8
  %120 = trunc i64 %119 to i32
  %121 = call ptr @xmlUTF8Strsub(ptr noundef %118, i32 noundef 0, i32 noundef %120)
  store ptr %121, ptr %7, align 8
  br label %123

122:                                              ; preds = %114
  store ptr null, ptr %7, align 8
  br label %123

123:                                              ; preds = %122, %117
  %124 = load i64, ptr %11, align 8
  %125 = load i64, ptr %12, align 8
  %126 = add nsw i64 %124, %125
  %127 = load i32, ptr %13, align 4
  %128 = sext i32 %127 to i64
  %129 = icmp sgt i64 %126, %128
  br i1 %129, label %130, label %135

130:                                              ; preds = %123
  %131 = load i32, ptr %13, align 4
  %132 = sext i32 %131 to i64
  %133 = load i64, ptr %11, align 8
  %134 = sub nsw i64 %132, %133
  store i64 %134, ptr %12, align 8
  br label %135

135:                                              ; preds = %130, %123
  %136 = load i64, ptr %11, align 8
  %137 = load i32, ptr %13, align 4
  %138 = sext i32 %137 to i64
  %139 = icmp slt i64 %136, %138
  br i1 %139, label %140, label %153

140:                                              ; preds = %135
  %141 = load ptr, ptr %6, align 8
  %142 = load i64, ptr %11, align 8
  %143 = trunc i64 %142 to i32
  %144 = sext i32 %143 to i64
  %145 = load i64, ptr %12, align 8
  %146 = add nsw i64 %144, %145
  %147 = trunc i64 %146 to i32
  %148 = load i32, ptr %13, align 4
  %149 = load i64, ptr %11, align 8
  %150 = trunc i64 %149 to i32
  %151 = sub nsw i32 %148, %150
  %152 = call ptr @xmlUTF8Strsub(ptr noundef %141, i32 noundef %147, i32 noundef %151)
  store ptr %152, ptr %8, align 8
  br label %153

153:                                              ; preds = %140, %135
  %154 = load ptr, ptr %7, align 8
  %155 = load ptr, ptr %10, align 8
  %156 = call ptr @xmlStrcat(ptr noundef %154, ptr noundef %155)
  store ptr %156, ptr %7, align 8
  %157 = load ptr, ptr %7, align 8
  %158 = load ptr, ptr %8, align 8
  %159 = call ptr @xmlStrcat(ptr noundef %157, ptr noundef %158)
  store ptr %159, ptr %7, align 8
  %160 = load ptr, ptr %9, align 8
  %161 = load ptr, ptr %7, align 8
  call void @xmlNodeSetContent(ptr noundef %160, ptr noundef %161)
  %162 = load ptr, ptr %8, align 8
  %163 = icmp ne ptr %162, null
  br i1 %163, label %164, label %167

164:                                              ; preds = %153
  %165 = load ptr, ptr @xmlFree, align 8
  %166 = load ptr, ptr %8, align 8
  call void %165(ptr noundef %166)
  br label %167

167:                                              ; preds = %164, %153
  %168 = load ptr, ptr @xmlFree, align 8
  %169 = load ptr, ptr %7, align 8
  call void %168(ptr noundef %169)
  br label %170

170:                                              ; preds = %167
  br label %171

171:                                              ; preds = %170
  %172 = load ptr, ptr %4, align 8
  %173 = getelementptr inbounds %struct._zval_struct, ptr %172, i32 0, i32 1
  store i32 3, ptr %173, align 8
  br label %174

174:                                              ; preds = %171
  br label %175

175:                                              ; preds = %174, %112, %72, %52, %25
  ret void
}