; Function Attrs: nounwind uwtable
define hidden void @zim_DOMCharacterData_replaceData(ptr nocapture noundef readonly %0, ptr nocapture noundef writeonly %1) local_unnamed_addr #0 {
  %3 = alloca ptr, align 8
  %4 = alloca i64, align 8
  %5 = alloca i64, align 8
  %6 = alloca i64, align 8
  %7 = getelementptr inbounds i8, ptr %0, i64 44
  %8 = load i32, ptr %7, align 4
  %9 = call i32 (i32, ptr, ...) @zend_parse_parameters(i32 noundef %8, ptr noundef nonnull @.str.4, ptr noundef nonnull %4, ptr noundef nonnull %5, ptr noundef nonnull %3, ptr noundef nonnull %6) #6
  %10 = icmp eq i32 %9, -1
  br i1 %10, label %11, label %14

11:                                               ; preds = %2
  %12 = load ptr, ptr getelementptr inbounds (%struct._zend_executor_globals, ptr @executor_globals, i64 0, i32 50), align 8
  %13 = icmp ne ptr %12, null
  call void @llvm.assume(i1 %13)
  br label %79

14:                                               ; preds = %2
  %15 = getelementptr inbounds i8, ptr %0, i64 32
  %16 = load ptr, ptr %15, align 8
  %17 = getelementptr inbounds i8, ptr %16, i64 -24
  %18 = load ptr, ptr %17, align 8
  %19 = icmp eq ptr %18, null
  br i1 %19, label %20, label %28

20:                                               ; preds = %14
  %21 = getelementptr inbounds i8, ptr %16, i64 16
  %22 = load ptr, ptr %21, align 8
  %23 = getelementptr inbounds i8, ptr %22, i64 8
  %24 = load ptr, ptr %23, align 8
  %25 = getelementptr inbounds i8, ptr %24, i64 24
  call void (ptr, ptr, ...) @zend_throw_error(ptr noundef null, ptr noundef nonnull @.str.1, ptr noundef nonnull %25) #6
  %26 = load ptr, ptr getelementptr inbounds (%struct._zend_executor_globals, ptr @executor_globals, i64 0, i32 50), align 8
  %27 = icmp ne ptr %26, null
  call void @llvm.assume(i1 %27)
  br label %79

28:                                               ; preds = %14
  %29 = load ptr, ptr %18, align 8
  %30 = getelementptr inbounds i8, ptr %29, i64 80
  %31 = load ptr, ptr %30, align 8
  %32 = icmp eq ptr %31, null
  br i1 %32, label %33, label %35

33:                                               ; preds = %28
  %34 = getelementptr inbounds i8, ptr %1, i64 8
  store i32 2, ptr %34, align 8
  br label %79

35:                                               ; preds = %28
  %36 = call i32 @xmlUTF8Strlen(ptr noundef nonnull %31) #6
  %37 = load i64, ptr %4, align 8
  %38 = load i64, ptr %5, align 8
  %39 = icmp slt i64 %38, 0
  %40 = icmp ugt i64 %37, 2147483647
  %or.cond35 = select i1 %40, i1 true, i1 %39
  %41 = icmp sgt i64 %38, 2147483647
  %or.cond36 = select i1 %or.cond35, i1 true, i1 %41
  br i1 %or.cond36, label %45, label %42

42:                                               ; preds = %35
  %43 = sext i32 %36 to i64
  %44 = icmp sgt i64 %37, %43
  br i1 %44, label %45, label %50

45:                                               ; preds = %42, %35
  %46 = getelementptr inbounds i8, ptr %16, i64 -16
  %47 = load ptr, ptr %46, align 8
  %48 = call i32 @dom_get_strict_error(ptr noundef %47) #6
  call void @php_dom_throw_error(i32 noundef 1, i32 noundef %48) #6
  %49 = getelementptr inbounds i8, ptr %1, i64 8
  store i32 2, ptr %49, align 8
  br label %79

50:                                               ; preds = %42
  %.not37 = icmp eq i64 %37, 0
  br i1 %.not37, label %54, label %51

51:                                               ; preds = %50
  %52 = trunc i64 %37 to i32
  %53 = call ptr @xmlUTF8Strsub(ptr noundef nonnull %31, i32 noundef 0, i32 noundef %52) #6
  %.pre = load i64, ptr %4, align 8
  %.pre38 = load i64, ptr %5, align 8
  br label %54

54:                                               ; preds = %50, %51
  %55 = phi i64 [ %.pre38, %51 ], [ %38, %50 ]
  %56 = phi i64 [ %.pre, %51 ], [ 0, %50 ]
  %.0 = phi ptr [ %53, %51 ], [ null, %50 ]
  %57 = add nsw i64 %55, %56
  %58 = icmp sgt i64 %57, %43
  br i1 %58, label %59, label %61

59:                                               ; preds = %54
  %60 = sub nsw i64 %43, %56
  store i64 %60, ptr %5, align 8
  br label %61

61:                                               ; preds = %59, %54
  %62 = phi i64 [ %60, %59 ], [ %55, %54 ]
  %63 = icmp slt i64 %56, %43
  br i1 %63, label %64, label %70

64:                                               ; preds = %61
  %65 = trunc i64 %56 to i32
  %66 = add i64 %62, %56
  %67 = trunc i64 %66 to i32
  %68 = sub nsw i32 %36, %65
  %69 = call ptr @xmlUTF8Strsub(ptr noundef nonnull %31, i32 noundef %67, i32 noundef %68) #6
  br label %70

70:                                               ; preds = %64, %61
  %.028 = phi ptr [ %69, %64 ], [ null, %61 ]
  %71 = load ptr, ptr %3, align 8
  %72 = call ptr @xmlStrcat(ptr noundef %.0, ptr noundef %71) #6
  %73 = call ptr @xmlStrcat(ptr noundef %72, ptr noundef %.028) #6
  call void @xmlNodeSetContent(ptr noundef nonnull %29, ptr noundef %73) #6
  %.not = icmp eq ptr %.028, null
  br i1 %.not, label %76, label %74

74:                                               ; preds = %70
  %75 = load ptr, ptr @xmlFree, align 8
  call void %75(ptr noundef nonnull %.028) #6
  br label %76

76:                                               ; preds = %74, %70
  %77 = load ptr, ptr @xmlFree, align 8
  call void %77(ptr noundef %73) #6
  %78 = getelementptr inbounds i8, ptr %1, i64 8
  store i32 3, ptr %78, align 8
  br label %79

79:                                               ; preds = %76, %45, %33, %20, %11
  ret void
}